; Function Attrs: mustprogress null_pointer_is_valid sspstrong uwtable
define void @_ZN21FilterExpressionFrame13updateWidgetsEv(ptr noundef readonly align 8 captures(none) dereferenceable_or_null(68) %0) local_unnamed_addr #0 align 2 personality ptr @__gxx_personality_v0 {
  %2 = alloca %class.QString, align 8
  call void @llvm.lifetime.start.p0(i64 24, ptr nonnull %2) #13
  %3 = getelementptr inbounds nuw i8, ptr %0, i64 56
  %4 = load ptr, ptr %3, align 8
  %5 = getelementptr inbounds nuw i8, ptr %4, i64 64
  %6 = load ptr, ptr %5, align 8
  call void @_ZNK9QLineEdit4textEv(ptr dead_on_unwind nonnull writable sret(%class.QString) align 8 %2, ptr noundef align 8 dereferenceable_or_null(40) %6)
  %7 = getelementptr inbounds nuw i8, ptr %2, i64 16
  %8 = load i64, ptr %7, align 8
  %9 = icmp eq i64 %8, 0
  br i1 %9, label %.critedge, label %10

10:                                               ; preds = %1
  %11 = load ptr, ptr %3, align 8
  %12 = getelementptr inbounds nuw i8, ptr %11, i64 88
  %13 = load ptr, ptr %12, align 8
  %14 = getelementptr inbounds nuw i8, ptr %13, i64 56
  %15 = load i32, ptr %14, align 8
  %.not = icmp eq i32 %15, 4
  br i1 %.not, label %.critedge2, label %16

16:                                               ; preds = %10
  %.not3 = icmp eq i32 %15, 3
  %17 = load ptr, ptr %2, align 8
  %.not.i.i.i = icmp eq ptr %17, null
  br i1 %.not.i.i.i, label %_ZN7QStringD2Ev.exit, label %_ZN17QArrayDataPointerIDsE5derefEv.exit.i.i

_ZN17QArrayDataPointerIDsE5derefEv.exit.i.i:      ; preds = %16
  %18 = atomicrmw sub ptr %17, i32 1 seq_cst, align 4
  %.not.i.i = icmp eq i32 %18, 1
  br i1 %.not.i.i, label %19, label %_ZN7QStringD2Ev.exit

19:                                               ; preds = %_ZN17QArrayDataPointerIDsE5derefEv.exit.i.i
  %20 = load ptr, ptr %2, align 8
  call void @_ZN10QArrayData10deallocateEPS_xx(ptr noundef %20, i64 noundef 2, i64 noundef 8) #13
  br label %_ZN7QStringD2Ev.exit

_ZN7QStringD2Ev.exit:                             ; preds = %16, %_ZN17QArrayDataPointerIDsE5derefEv.exit.i.i, %19
  call void @llvm.lifetime.end.p0(i64 24, ptr nonnull %2) #13
  br i1 %.not3, label %30, label %25

.critedge:                                        ; preds = %1
  %21 = load ptr, ptr %2, align 8
  %.not.i.i.i4 = icmp eq ptr %21, null
  br i1 %.not.i.i.i4, label %_ZN7QStringD2Ev.exit7, label %_ZN17QArrayDataPointerIDsE5derefEv.exit.i.i5

_ZN17QArrayDataPointerIDsE5derefEv.exit.i.i5:     ; preds = %.critedge
  %22 = atomicrmw sub ptr %21, i32 1 seq_cst, align 4
  %.not.i.i6 = icmp eq i32 %22, 1
  br i1 %.not.i.i6, label %23, label %_ZN7QStringD2Ev.exit7

23:                                               ; preds = %_ZN17QArrayDataPointerIDsE5derefEv.exit.i.i5
  %24 = load ptr, ptr %2, align 8
  call void @_ZN10QArrayData10deallocateEPS_xx(ptr noundef %24, i64 noundef 2, i64 noundef 8) #13
  br label %_ZN7QStringD2Ev.exit7

_ZN7QStringD2Ev.exit7:                            ; preds = %.critedge, %_ZN17QArrayDataPointerIDsE5derefEv.exit.i.i5, %23
  call void @llvm.lifetime.end.p0(i64 24, ptr nonnull %2) #13
  br label %25

25:                                               ; preds = %_ZN7QStringD2Ev.exit7, %_ZN7QStringD2Ev.exit
  br label %30

.critedge2:                                       ; preds = %10
  %26 = load ptr, ptr %2, align 8
  %.not.i.i.i8 = icmp eq ptr %26, null
  br i1 %.not.i.i.i8, label %_ZN7QStringD2Ev.exit11, label %_ZN17QArrayDataPointerIDsE5derefEv.exit.i.i9

_ZN17QArrayDataPointerIDsE5derefEv.exit.i.i9:     ; preds = %.critedge2
  %27 = atomicrmw sub ptr %26, i32 1 seq_cst, align 4
  %.not.i.i10 = icmp eq i32 %27, 1
  br i1 %.not.i.i10, label %28, label %_ZN7QStringD2Ev.exit11

28:                                               ; preds = %_ZN17QArrayDataPointerIDsE5derefEv.exit.i.i9
  %29 = load ptr, ptr %2, align 8
  call void @_ZN10QArrayData10deallocateEPS_xx(ptr noundef %29, i64 noundef 2, i64 noundef 8) #13
  br label %_ZN7QStringD2Ev.exit11

_ZN7QStringD2Ev.exit11:                           ; preds = %.critedge2, %_ZN17QArrayDataPointerIDsE5derefEv.exit.i.i9, %28
  call void @llvm.lifetime.end.p0(i64 24, ptr nonnull %2) #13
  br label %30

30:                                               ; preds = %_ZN7QStringD2Ev.exit11, %25, %_ZN7QStringD2Ev.exit
  %.0 = phi i1 [ false, %25 ], [ true, %_ZN7QStringD2Ev.exit ], [ true, %_ZN7QStringD2Ev.exit11 ]
  %31 = load ptr, ptr %3, align 8
  %32 = getelementptr inbounds nuw i8, ptr %31, i64 120
  %33 = load ptr, ptr %32, align 8
  %34 = call noundef ptr @_ZNK16QDialogButtonBox6buttonENS_14StandardButtonE(ptr noundef align 8 dereferenceable_or_null(40) %33, i32 noundef 1024)
  call void @_ZN7QWidget10setEnabledEb(ptr noundef align 8 dereferenceable_or_null(40) %34, i1 noundef zeroext %.0)
  ret void
}